target datalayout = "e-m:e-p270:32:32-p271:32:32-p272:64:64-i64:64-i128:128-f80:128-n8:16:32:64-S128"
target triple = "x86_64-pc-linux-gnu"

%"class.std::__cxx11::basic_string" = type { %"struct.std::__cxx11::basic_string<char>::_Alloc_hider", i64, %union.anon }
%"struct.std::__cxx11::basic_string<char>::_Alloc_hider" = type { ptr }
%union.anon = type { i64, [8 x i8] }
%"class.std::shared_ptr" = type { %"class.std::__shared_ptr" }
%"class.std::__shared_ptr" = type { ptr, %"class.std::__shared_count" }
%"class.std::__shared_count" = type { ptr }
%"class.OpenColorIO_v2_5dev::XmlReaderContainerElt" = type { %"class.OpenColorIO_v2_5dev::XmlReaderElement" }
%"class.OpenColorIO_v2_5dev::XmlReaderElement" = type { ptr, %"class.std::__cxx11::basic_string", i32, %"class.std::__cxx11::basic_string" }
%"class.OpenColorIO_v2_5dev::FormatMetadataImpl" = type { %"class.OpenColorIO_v2_5dev::FormatMetadata", %"class.std::__cxx11::basic_string", %"class.std::__cxx11::basic_string", %"class.std::vector", %"class.std::vector.3" }
%"class.OpenColorIO_v2_5dev::FormatMetadata" = type { ptr }
%"class.std::vector" = type { %"struct.std::_Vector_base" }
%"struct.std::_Vector_base" = type { %"struct.std::_Vector_base<std::pair<std::__cxx11::basic_string<char>, std::__cxx11::basic_string<char>>, std::allocator<std::pair<std::__cxx11::basic_string<char>, std::__cxx11::basic_string<char>>>>::_Vector_impl" }
%"struct.std::_Vector_base<std::pair<std::__cxx11::basic_string<char>, std::__cxx11::basic_string<char>>, std::allocator<std::pair<std::__cxx11::basic_string<char>, std::__cxx11::basic_string<char>>>>::_Vector_impl" = type { %"struct.std::_Vector_base<std::pair<std::__cxx11::basic_string<char>, std::__cxx11::basic_string<char>>, std::allocator<std::pair<std::__cxx11::basic_string<char>, std::__cxx11::basic_string<char>>>>::_Vector_impl_data" }
%"struct.std::_Vector_base<std::pair<std::__cxx11::basic_string<char>, std::__cxx11::basic_string<char>>, std::allocator<std::pair<std::__cxx11::basic_string<char>, std::__cxx11::basic_string<char>>>>::_Vector_impl_data" = type { ptr, ptr, ptr }
%"class.std::vector.3" = type { %"struct.std::_Vector_base.4" }
%"struct.std::_Vector_base.4" = type { %"struct.std::_Vector_base<OpenColorIO_v2_5dev::FormatMetadataImpl, std::allocator<OpenColorIO_v2_5dev::FormatMetadataImpl>>::_Vector_impl" }
%"struct.std::_Vector_base<OpenColorIO_v2_5dev::FormatMetadataImpl, std::allocator<OpenColorIO_v2_5dev::FormatMetadataImpl>>::_Vector_impl" = type { %"struct.std::_Vector_base<OpenColorIO_v2_5dev::FormatMetadataImpl, std::allocator<OpenColorIO_v2_5dev::FormatMetadataImpl>>::_Vector_impl_data" }
%"struct.std::_Vector_base<OpenColorIO_v2_5dev::FormatMetadataImpl, std::allocator<OpenColorIO_v2_5dev::FormatMetadataImpl>>::_Vector_impl_data" = type { ptr, ptr, ptr }
%"class.OpenColorIO_v2_5dev::CTFReaderOpElt" = type { %"class.OpenColorIO_v2_5dev::XmlReaderContainerElt", %"class.std::shared_ptr", i32, i32 }
%"class.OpenColorIO_v2_5dev::OpData" = type { ptr, %"class.std::mutex", %"class.OpenColorIO_v2_5dev::FormatMetadataImpl" }
%"class.std::mutex" = type { %"class.std::__mutex_base" }
%"class.std::__mutex_base" = type { %union.pthread_mutex_t }
%union.pthread_mutex_t = type { %struct.__pthread_mutex_s }
%struct.__pthread_mutex_s = type { i32, i32, i32, i32, i32, i16, i16, %struct.__pthread_internal_list }
%struct.__pthread_internal_list = type { ptr, ptr }
%"class.std::vector.159" = type { %"struct.std::_Vector_base.160" }
%"struct.std::_Vector_base.160" = type { %"struct.std::_Vector_base<float, std::allocator<float>>::_Vector_impl" }
%"struct.std::_Vector_base<float, std::allocator<float>>::_Vector_impl" = type { %"struct.std::_Vector_base<float, std::allocator<float>>::_Vector_impl_data" }
%"struct.std::_Vector_base<float, std::allocator<float>>::_Vector_impl_data" = type { ptr, ptr, ptr }
%"class.OpenColorIO_v2_5dev::CTFArrayMgt.base" = type <{ ptr, i8 }>
%"class.std::shared_ptr.183" = type { %"class.std::__shared_ptr.184" }
%"class.std::__shared_ptr.184" = type { ptr, %"class.std::__shared_count" }
%"class.OpenColorIO_v2_5dev::Lut1DOpData" = type <{ %"class.OpenColorIO_v2_5dev::OpData", i32, [4 x i8], %"class.OpenColorIO_v2_5dev::Lut1DOpData::Lut3by1DArray", i32, i32, i32, [4 x i8], [3 x %"struct.OpenColorIO_v2_5dev::Lut1DOpData::ComponentProperties"], i32, [4 x i8] }>
%"class.OpenColorIO_v2_5dev::Lut1DOpData::Lut3by1DArray" = type { %"class.OpenColorIO_v2_5dev::ArrayT" }
%"class.OpenColorIO_v2_5dev::ArrayT" = type { %"class.OpenColorIO_v2_5dev::ArrayBase", i64, i64, %"class.std::vector.159" }
%"class.OpenColorIO_v2_5dev::ArrayBase" = type { ptr }
%"struct.OpenColorIO_v2_5dev::Lut1DOpData::ComponentProperties" = type { i8, i64, i64, i64, i64 }
%"class.OpenColorIO_v2_5dev::CTFReaderLut1DElt" = type { %"class.OpenColorIO_v2_5dev::CTFReaderOpElt", %"class.OpenColorIO_v2_5dev::CTFArrayMgt.base", [7 x i8], %"class.OpenColorIO_v2_5dev::CTFIndexMapMgt.base", %"class.std::shared_ptr.183", %"class.OpenColorIO_v2_5dev::IndexMapping" }
%"class.OpenColorIO_v2_5dev::CTFIndexMapMgt.base" = type <{ ptr, i8 }>
%"class.OpenColorIO_v2_5dev::IndexMapping" = type { ptr, i64, [3 x %"class.std::vector.30"] }
%"class.std::vector.30" = type { %"struct.std::_Vector_base.31" }
%"struct.std::_Vector_base.31" = type { %"struct.std::_Vector_base<std::pair<float, float>, std::allocator<std::pair<float, float>>>::_Vector_impl" }
%"struct.std::_Vector_base<std::pair<float, float>, std::allocator<std::pair<float, float>>>::_Vector_impl" = type { %"struct.std::_Vector_base<std::pair<float, float>, std::allocator<std::pair<float, float>>>::_Vector_impl_data" }
%"struct.std::_Vector_base<std::pair<float, float>, std::allocator<std::pair<float, float>>>::_Vector_impl_data" = type { ptr, ptr, ptr }

@.str.28 = private unnamed_addr constant [2 x i8] c".\00", align 1
@.str.37 = private unnamed_addr constant [2 x i8] c"x\00", align 1
@.str.38 = private unnamed_addr constant [10 x i8] c"Expected \00", align 1
@.str.133 = private unnamed_addr constant [22 x i8] c" Array values, found \00", align 1

; Function Attrs: mustprogress nounwind uwtable
define linkonce_odr hidden noundef ptr @_ZNKSt12__shared_ptrIN19OpenColorIO_v2_5dev11Lut1DOpDataELN9__gnu_cxx12_Lock_policyE2EE3getEv(ptr noundef nonnull align 8 dereferenceable(16) %0) #4 comdat align 2 {
  %2 = alloca ptr, align 8
  store ptr %0, ptr %2, align 8, !tbaa !562
  %3 = load ptr, ptr %2, align 8
  %4 = getelementptr inbounds nuw %"class.std::__shared_ptr.184", ptr %3, i32 0, i32 0
  %5 = load ptr, ptr %4, align 8, !tbaa !1671
  ret ptr %5
}

; Function Attrs: mustprogress nounwind uwtable
define linkonce_odr hidden noundef ptr @_ZNKSt19__shared_ptr_accessIN19OpenColorIO_v2_5dev11Lut1DOpDataELN9__gnu_cxx12_Lock_policyE2ELb0ELb0EE6_M_getEv(ptr noundef nonnull align 1 dereferenceable(1) %0) #4 comdat align 2 {
  %2 = alloca ptr, align 8
  store ptr %0, ptr %2, align 8, !tbaa !569
  %3 = load ptr, ptr %2, align 8
  %4 = call noundef ptr @_ZNKSt12__shared_ptrIN19OpenColorIO_v2_5dev11Lut1DOpDataELN9__gnu_cxx12_Lock_policyE2EE3getEv(ptr noundef nonnull align 8 dereferenceable(16) %3) #3
  ret ptr %4
}

; Function Attrs: mustprogress nounwind uwtable
define linkonce_odr hidden noundef nonnull align 4 dereferenceable(4) ptr @_ZNSt6vectorIfSaIfEEixEm(ptr noundef nonnull align 8 dereferenceable(24) %0, i64 noundef %1) #4 comdat align 2 {
  %3 = alloca ptr, align 8
  %4 = alloca i64, align 8
  store ptr %0, ptr %3, align 8, !tbaa !517
  store i64 %1, ptr %4, align 8, !tbaa !85
  %5 = load ptr, ptr %3, align 8
  %6 = getelementptr inbounds nuw %"struct.std::_Vector_base.160", ptr %5, i32 0, i32 0
  %7 = getelementptr inbounds nuw %"struct.std::_Vector_base<float, std::allocator<float>>::_Vector_impl_data", ptr %6, i32 0, i32 0
  %8 = load ptr, ptr %7, align 8, !tbaa !519
  %9 = load i64, ptr %4, align 8, !tbaa !85
  %10 = getelementptr inbounds nuw float, ptr %8, i64 %9
  ret ptr %10
}

; Function Attrs: inlinehint mustprogress nounwind uwtable
define linkonce_odr hidden noundef nonnull align 8 dereferenceable(24) ptr @_ZN19OpenColorIO_v2_5dev6ArrayTIfE9getValuesEv(ptr noundef nonnull align 8 dereferenceable(48) %0) #14 comdat align 2 {
  %2 = alloca ptr, align 8
  store ptr %0, ptr %2, align 8, !tbaa !585
  %3 = load ptr, ptr %2, align 8
  %4 = getelementptr inbounds nuw %"class.OpenColorIO_v2_5dev::ArrayT", ptr %3, i32 0, i32 3
  ret ptr %4
}

; Function Attrs: inlinehint mustprogress nounwind uwtable
define linkonce_odr hidden noundef zeroext i1 @_ZNK19OpenColorIO_v2_5dev11Lut1DOpData16isOutputRawHalfsEv(ptr noundef nonnull align 8 dereferenceable(364) %0) #14 comdat align 2 {
  %2 = alloca ptr, align 8
  store ptr %0, ptr %2, align 8, !tbaa !571
  %3 = load ptr, ptr %2, align 8
  %4 = getelementptr inbounds nuw %"class.OpenColorIO_v2_5dev::Lut1DOpData", ptr %3, i32 0, i32 4
  %5 = load i32, ptr %4, align 8, !tbaa !590
  %6 = and i32 %5, 2
  %7 = icmp eq i32 %6, 2
  ret i1 %7
}

; Function Attrs: inlinehint mustprogress nounwind uwtable
define linkonce_odr hidden noundef nonnull align 8 dereferenceable(48) ptr @_ZN19OpenColorIO_v2_5dev11Lut1DOpData8getArrayEv(ptr noundef nonnull align 8 dereferenceable(364) %0) #14 comdat align 2 {
  %2 = alloca ptr, align 8
  store ptr %0, ptr %2, align 8, !tbaa !571
  %3 = load ptr, ptr %2, align 8
  %4 = getelementptr inbounds nuw %"class.OpenColorIO_v2_5dev::Lut1DOpData", ptr %3, i32 0, i32 3
  ret ptr %4
}

; Function Attrs: mustprogress nounwind uwtable
define linkonce_odr hidden noundef ptr @_ZNKSt19__shared_ptr_accessIN19OpenColorIO_v2_5dev11Lut1DOpDataELN9__gnu_cxx12_Lock_policyE2ELb0ELb0EEptEv(ptr noundef nonnull align 1 dereferenceable(1) %0) #4 comdat align 2 {
  %2 = alloca ptr, align 8
  store ptr %0, ptr %2, align 8, !tbaa !569
  %3 = load ptr, ptr %2, align 8
  %4 = call noundef ptr @_ZNKSt19__shared_ptr_accessIN19OpenColorIO_v2_5dev11Lut1DOpDataELN9__gnu_cxx12_Lock_policyE2ELb0ELb0EE6_M_getEv(ptr noundef nonnull align 1 dereferenceable(1) %3) #3
  ret ptr %4
}

; Function Attrs: mustprogress uwtable
define hidden void @_ZN19OpenColorIO_v2_5dev17CTFReaderLut1DElt8endArrayEj(ptr noundef nonnull align 8 dereferenceable(240) %0, i32 noundef %1) unnamed_addr #5 align 2 {
  %3 = alloca ptr, align 8
  %4 = alloca i32, align 4
  %5 = alloca ptr, align 8
  %6 = alloca i64, align 8
  %7 = alloca i64, align 8
  %8 = alloca i32, align 4
  %9 = alloca i32, align 4
  %10 = alloca i32, align 4
  %11 = alloca i32, align 4
  %12 = alloca i32, align 4
  %13 = alloca i32, align 4
  %14 = alloca i32, align 4
  store ptr %0, ptr %3, align 8, !tbaa !654
  store i32 %1, ptr %4, align 4, !tbaa !13
  %15 = load ptr, ptr %3, align 8
  call void @llvm.lifetime.start.p0(i64 8, ptr %5) #3
  %16 = getelementptr inbounds nuw %"class.OpenColorIO_v2_5dev::CTFReaderLut1DElt", ptr %15, i32 0, i32 4
  %17 = call noundef ptr @_ZNKSt19__shared_ptr_accessIN19OpenColorIO_v2_5dev11Lut1DOpDataELN9__gnu_cxx12_Lock_policyE2ELb0ELb0EEptEv(ptr noundef nonnull align 1 dereferenceable(1) %16) #3
  %18 = call noundef nonnull align 8 dereferenceable(48) ptr @_ZN19OpenColorIO_v2_5dev11Lut1DOpData8getArrayEv(ptr noundef nonnull align 8 dereferenceable(364) %17) #3
  store ptr %18, ptr %5, align 8, !tbaa !585
  %19 = getelementptr inbounds nuw %"class.OpenColorIO_v2_5dev::CTFReaderLut1DElt", ptr %15, i32 0, i32 4
  %20 = call noundef ptr @_ZNKSt19__shared_ptr_accessIN19OpenColorIO_v2_5dev11Lut1DOpDataELN9__gnu_cxx12_Lock_policyE2ELb0ELb0EEptEv(ptr noundef nonnull align 1 dereferenceable(1) %19) #3
  %21 = call noundef zeroext i1 @_ZNK19OpenColorIO_v2_5dev11Lut1DOpData16isOutputRawHalfsEv(ptr noundef nonnull align 8 dereferenceable(364) %20) #3
  br i1 %21, label %22, label %49

22:                                               ; preds = %2
  call void @llvm.lifetime.start.p0(i64 8, ptr %6) #3
  %23 = load ptr, ptr %5, align 8, !tbaa !585
  %24 = load ptr, ptr %23, align 8, !tbaa !25
  %25 = getelementptr inbounds ptr, ptr %24, i64 6
  %26 = load ptr, ptr %25, align 8
  %27 = call noundef i64 %26(ptr noundef nonnull align 8 dereferenceable(8) %23)
  store i64 %27, ptr %6, align 8, !tbaa !85
  call void @llvm.lifetime.start.p0(i64 8, ptr %7) #3
  store i64 0, ptr %7, align 8, !tbaa !85
  br label %28

28:                                               ; preds = %45, %22
  %29 = load i64, ptr %7, align 8, !tbaa !85
  %30 = load i64, ptr %6, align 8, !tbaa !85
  %31 = icmp ult i64 %29, %30
  br i1 %31, label %33, label %32

32:                                               ; preds = %28
  call void @llvm.lifetime.end.p0(i64 8, ptr %7) #3
  br label %48

33:                                               ; preds = %28
  %34 = load ptr, ptr %5, align 8, !tbaa !585
  %35 = call noundef nonnull align 8 dereferenceable(24) ptr @_ZN19OpenColorIO_v2_5dev6ArrayTIfE9getValuesEv(ptr noundef nonnull align 8 dereferenceable(48) %34)
  %36 = load i64, ptr %7, align 8, !tbaa !85
  %37 = call noundef nonnull align 4 dereferenceable(4) ptr @_ZNSt6vectorIfSaIfEEixEm(ptr noundef nonnull align 8 dereferenceable(24) %35, i64 noundef %36) #3
  %38 = load float, ptr %37, align 4, !tbaa !129
  %39 = fptoui float %38 to i16
  %40 = call noundef float @_ZN19OpenColorIO_v2_5dev22ConvertHalfBitsToFloatEt(i16 noundef zeroext %39)
  %41 = load ptr, ptr %5, align 8, !tbaa !585
  %42 = call noundef nonnull align 8 dereferenceable(24) ptr @_ZN19OpenColorIO_v2_5dev6ArrayTIfE9getValuesEv(ptr noundef nonnull align 8 dereferenceable(48) %41)
  %43 = load i64, ptr %7, align 8, !tbaa !85
  %44 = call noundef nonnull align 4 dereferenceable(4) ptr @_ZNSt6vectorIfSaIfEEixEm(ptr noundef nonnull align 8 dereferenceable(24) %42, i64 noundef %43) #3
  store float %40, ptr %44, align 4, !tbaa !129
  br label %45

45:                                               ; preds = %33
  %46 = load i64, ptr %7, align 8, !tbaa !85
  %47 = add i64 %46, 1
  store i64 %47, ptr %7, align 8, !tbaa !85
  br label %28, !llvm.loop !659

48:                                               ; preds = %32
  call void @llvm.lifetime.end.p0(i64 8, ptr %6) #3
  br label %49

49:                                               ; preds = %48, %2
  %50 = load ptr, ptr %5, align 8, !tbaa !585
  %51 = load ptr, ptr %50, align 8, !tbaa !25
  %52 = getelementptr inbounds ptr, ptr %51, i64 6
  %53 = load ptr, ptr %52, align 8
  %54 = call noundef i64 %53(ptr noundef nonnull align 8 dereferenceable(8) %50)
  %55 = load i32, ptr %4, align 4, !tbaa !13
  %56 = zext i32 %55 to i64
  %57 = icmp ne i64 %54, %56
  br i1 %57, label %58, label %116

58:                                               ; preds = %49
  call void @llvm.lifetime.start.p0(i64 4, ptr %8) #3
  %59 = load ptr, ptr %5, align 8, !tbaa !585
  %60 = load ptr, ptr %59, align 8, !tbaa !25
  %61 = getelementptr inbounds ptr, ptr %60, i64 5
  %62 = load ptr, ptr %61, align 8
  %63 = call noundef i64 %62(ptr noundef nonnull align 8 dereferenceable(48) %59)
  %64 = trunc i64 %63 to i32
  store i32 %64, ptr %8, align 4, !tbaa !13
  call void @llvm.lifetime.start.p0(i64 4, ptr %9) #3
  store i32 3, ptr %9, align 4, !tbaa !13
  call void @llvm.lifetime.start.p0(i64 4, ptr %10) #3
  %65 = load ptr, ptr %5, align 8, !tbaa !585
  %66 = load ptr, ptr %65, align 8, !tbaa !25
  %67 = getelementptr inbounds ptr, ptr %66, i64 4
  %68 = load ptr, ptr %67, align 8
  %69 = call noundef i64 %68(ptr noundef nonnull align 8 dereferenceable(48) %65)
  %70 = trunc i64 %69 to i32
  store i32 %70, ptr %10, align 4, !tbaa !13
  %71 = load i32, ptr %8, align 4, !tbaa !13
  %72 = icmp ne i32 %71, 1
  br i1 %72, label %77, label %73

73:                                               ; preds = %58
  %74 = load i32, ptr %4, align 4, !tbaa !13
  %75 = load i32, ptr %10, align 4, !tbaa !13
  %76 = icmp ne i32 %74, %75
  br i1 %76, label %77, label %81

77:                                               ; preds = %73, %58
  %78 = load i32, ptr %10, align 4, !tbaa !13
  %79 = load i32, ptr %8, align 4, !tbaa !13
  %80 = load i32, ptr %4, align 4, !tbaa !13
  call void @_ZN19OpenColorIO_v2_5dev12_GLOBAL__N_16ThrowMIA10_cJjPKcjS4_jS4_EEEvRKNS_16XmlReaderElementERKT_DpT0_(ptr noundef nonnull align 8 dereferenceable(80) %15, ptr noundef nonnull align 1 dereferenceable(10) @.str.38, i32 noundef %78, ptr noundef @.str.37, i32 noundef %79, ptr noundef @.str.133, i32 noundef %80, ptr noundef @.str.28)
  br label %81

81:                                               ; preds = %77, %73
  call void @llvm.lifetime.start.p0(i64 4, ptr %11) #3
  store i32 3, ptr %11, align 4, !tbaa !13
  call void @llvm.lifetime.start.p0(i64 4, ptr %12) #3
  %82 = load i32, ptr %10, align 4, !tbaa !13
  %83 = sub i32 %82, 1
  store i32 %83, ptr %12, align 4, !tbaa !13
  br label %84

84:                                               ; preds = %112, %81
  %85 = load i32, ptr %12, align 4, !tbaa !13
  %86 = icmp sge i32 %85, 0
  br i1 %86, label %88, label %87

87:                                               ; preds = %84
  store i32 5, ptr %13, align 4
  call void @llvm.lifetime.end.p0(i64 4, ptr %12) #3
  br label %115

88:                                               ; preds = %84
  call void @llvm.lifetime.start.p0(i64 4, ptr %14) #3
  store i32 0, ptr %14, align 4, !tbaa !13
  br label %89

89:                                               ; preds = %108, %88
  %90 = load i32, ptr %14, align 4, !tbaa !13
  %91 = icmp ult i32 %90, 3
  br i1 %91, label %93, label %92

92:                                               ; preds = %89
  store i32 8, ptr %13, align 4
  call void @llvm.lifetime.end.p0(i64 4, ptr %14) #3
  br label %111

93:                                               ; preds = %89
  %94 = load ptr, ptr %5, align 8, !tbaa !585
  %95 = call noundef nonnull align 8 dereferenceable(24) ptr @_ZN19OpenColorIO_v2_5dev6ArrayTIfE9getValuesEv(ptr noundef nonnull align 8 dereferenceable(48) %94)
  %96 = load i32, ptr %12, align 4, !tbaa !13
  %97 = sext i32 %96 to i64
  %98 = call noundef nonnull align 4 dereferenceable(4) ptr @_ZNSt6vectorIfSaIfEEixEm(ptr noundef nonnull align 8 dereferenceable(24) %95, i64 noundef %97) #3
  %99 = load float, ptr %98, align 4, !tbaa !129
  %100 = load ptr, ptr %5, align 8, !tbaa !585
  %101 = call noundef nonnull align 8 dereferenceable(24) ptr @_ZN19OpenColorIO_v2_5dev6ArrayTIfE9getValuesEv(ptr noundef nonnull align 8 dereferenceable(48) %100)
  %102 = load i32, ptr %12, align 4, !tbaa !13
  %103 = mul i32 %102, 3
  %104 = load i32, ptr %14, align 4, !tbaa !13
  %105 = add i32 %103, %104
  %106 = zext i32 %105 to i64
  %107 = call noundef nonnull align 4 dereferenceable(4) ptr @_ZNSt6vectorIfSaIfEEixEm(ptr noundef nonnull align 8 dereferenceable(24) %101, i64 noundef %106) #3
  store float %99, ptr %107, align 4, !tbaa !129
  br label %108

108:                                              ; preds = %93
  %109 = load i32, ptr %14, align 4, !tbaa !13
  %110 = add i32 %109, 1
  store i32 %110, ptr %14, align 4, !tbaa !13
  br label %89, !llvm.loop !660

111:                                              ; preds = %92
  br label %112

112:                                              ; preds = %111
  %113 = load i32, ptr %12, align 4, !tbaa !13
  %114 = add nsw i32 %113, -1
  store i32 %114, ptr %12, align 4, !tbaa !13
  br label %84, !llvm.loop !661

115:                                              ; preds = %87
  call void @llvm.lifetime.end.p0(i64 4, ptr %11) #3
  call void @llvm.lifetime.end.p0(i64 4, ptr %10) #3
  call void @llvm.lifetime.end.p0(i64 4, ptr %9) #3
  call void @llvm.lifetime.end.p0(i64 4, ptr %8) #3
  br label %116

116:                                              ; preds = %115, %49
  %117 = load ptr, ptr %5, align 8, !tbaa !585
  %118 = load ptr, ptr %117, align 8, !tbaa !25
  %119 = getelementptr inbounds ptr, ptr %118, i64 8
  %120 = load ptr, ptr %119, align 8
  call void %120(ptr noundef nonnull align 8 dereferenceable(48) %117)
  %121 = getelementptr inbounds i8, ptr %15, i64 104
  %122 = load ptr, ptr %121, align 8, !tbaa !25
  %123 = getelementptr inbounds ptr, ptr %122, i64 2
  %124 = load ptr, ptr %123, align 8
  call void %124(ptr noundef nonnull align 8 dereferenceable(9) %121, i1 noundef zeroext true)
  call void @llvm.lifetime.end.p0(i64 8, ptr %5) #3
  ret void
}