; Function Attrs: mustprogress uwtable
define hidden void @_ZN19OpenColorIO_v2_5dev17CTFReaderLut1DElt8endArrayEj(ptr noundef nonnull align 8 dereferenceable(240) %0, i32 noundef %1) unnamed_addr #4 align 2 {
  %3 = getelementptr inbounds nuw i8, ptr %0, i64 136
  %4 = load ptr, ptr %3, align 8, !tbaa !960
  %5 = getelementptr inbounds nuw i8, ptr %4, i64 176
  %6 = getelementptr inbounds nuw i8, ptr %4, i64 224
  %7 = load i32, ptr %6, align 8, !tbaa !997
  %8 = and i32 %7, 2
  %.not37 = icmp eq i32 %8, 0
  br i1 %.not37, label %.loopexit39, label %9

9:                                                ; preds = %2
  %10 = load ptr, ptr %5, align 8, !tbaa !9
  %11 = getelementptr inbounds nuw i8, ptr %10, i64 48
  %12 = load ptr, ptr %11, align 8
  %13 = tail call noundef i64 %12(ptr noundef nonnull align 8 dereferenceable(8) %5)
  %.not44 = icmp eq i64 %13, 0
  br i1 %.not44, label %.loopexit39, label %.lr.ph

.lr.ph:                                           ; preds = %9
  %14 = getelementptr inbounds nuw i8, ptr %4, i64 200
  %.pre = load ptr, ptr %14, align 8, !tbaa !880
  br label %15

15:                                               ; preds = %.lr.ph, %15
  %16 = phi ptr [ %.pre, %.lr.ph ], [ %21, %15 ]
  %.03040 = phi i64 [ 0, %.lr.ph ], [ %23, %15 ]
  %17 = getelementptr inbounds nuw float, ptr %16, i64 %.03040
  %18 = load float, ptr %17, align 4, !tbaa !212
  %19 = fptoui float %18 to i16
  %20 = tail call noundef float @_ZN19OpenColorIO_v2_5dev22ConvertHalfBitsToFloatEt(i16 noundef zeroext %19)
  %21 = load ptr, ptr %14, align 8, !tbaa !880
  %22 = getelementptr inbounds nuw float, ptr %21, i64 %.03040
  store float %20, ptr %22, align 4, !tbaa !212
  %23 = add nuw i64 %.03040, 1
  %exitcond.not = icmp eq i64 %23, %13
  br i1 %exitcond.not, label %.loopexit39, label %15, !llvm.loop !1118

.loopexit39:                                      ; preds = %15, %9, %2
  %24 = load ptr, ptr %5, align 8, !tbaa !9
  %25 = getelementptr inbounds nuw i8, ptr %24, i64 48
  %26 = load ptr, ptr %25, align 8
  %27 = tail call noundef i64 %26(ptr noundef nonnull align 8 dereferenceable(8) %5)
  %28 = zext i32 %1 to i64
  %.not = icmp eq i64 %27, %28
  br i1 %.not, label %.loopexit38, label %29

29:                                               ; preds = %.loopexit39
  %30 = load ptr, ptr %5, align 8, !tbaa !9
  %31 = getelementptr inbounds nuw i8, ptr %30, i64 40
  %32 = load ptr, ptr %31, align 8
  %33 = tail call noundef i64 %32(ptr noundef nonnull align 8 dereferenceable(48) %5)
  %34 = trunc i64 %33 to i32
  %35 = load ptr, ptr %5, align 8, !tbaa !9
  %36 = getelementptr inbounds nuw i8, ptr %35, i64 32
  %37 = load ptr, ptr %36, align 8
  %38 = tail call noundef i64 %37(ptr noundef nonnull align 8 dereferenceable(48) %5)
  %39 = trunc i64 %38 to i32
  %.not35 = icmp eq i32 %34, 1
  br i1 %.not35, label %40, label %.sink.split

40:                                               ; preds = %29
  %.not36 = icmp eq i32 %1, %39
  br i1 %.not36, label %41, label %.sink.split

.sink.split:                                      ; preds = %40, %29
  %.sink = phi i32 [ %34, %29 ], [ 1, %40 ]
  tail call fastcc void @_ZN19OpenColorIO_v2_5dev12_GLOBAL__N_16ThrowMIA10_cJjPKcjS4_jS4_EEEvRKNS_16XmlReaderElementERKT_DpT0_(ptr noundef nonnull align 8 dereferenceable(80) %0, i32 noundef %39, i32 noundef %.sink, i32 noundef %1)
  br label %41

41:                                               ; preds = %.sink.split, %40
  %.02942 = add i32 %39, -1
  %42 = icmp sgt i32 %.02942, -1
  br i1 %42, label %.preheader.lr.ph, label %.loopexit38

.preheader.lr.ph:                                 ; preds = %41
  %43 = getelementptr inbounds nuw i8, ptr %4, i64 200
  %44 = load ptr, ptr %43, align 8, !tbaa !880
  %45 = zext nneg i32 %.02942 to i64
  br label %.preheader

.loopexit:                                        ; preds = %49
  %indvars.iv.next48 = add nsw i64 %indvars.iv47, -1
  %46 = icmp sgt i64 %indvars.iv47, 0
  br i1 %46, label %.preheader, label %.loopexit38, !llvm.loop !1119

.preheader:                                       ; preds = %.preheader.lr.ph, %.loopexit
  %indvars.iv47 = phi i64 [ %45, %.preheader.lr.ph ], [ %indvars.iv.next48, %.loopexit ]
  %47 = getelementptr inbounds nuw float, ptr %44, i64 %indvars.iv47
  %48 = mul i64 %indvars.iv47, 3
  %.pre50 = load float, ptr %47, align 4, !tbaa !212
  br label %49

49:                                               ; preds = %.preheader, %49
  %indvars.iv = phi i64 [ 0, %.preheader ], [ %indvars.iv.next, %49 ]
  %50 = add i64 %48, %indvars.iv
  %51 = and i64 %50, 4294967295
  %52 = getelementptr inbounds nuw float, ptr %44, i64 %51
  store float %.pre50, ptr %52, align 4, !tbaa !212
  %indvars.iv.next = add nuw nsw i64 %indvars.iv, 1
  %exitcond46.not = icmp eq i64 %indvars.iv.next, 3
  br i1 %exitcond46.not, label %.loopexit, label %49, !llvm.loop !1120

.loopexit38:                                      ; preds = %.loopexit, %41, %.loopexit39
  %53 = load ptr, ptr %5, align 8, !tbaa !9
  %54 = getelementptr inbounds nuw i8, ptr %53, i64 64
  %55 = load ptr, ptr %54, align 8
  tail call void %55(ptr noundef nonnull align 8 dereferenceable(48) %5)
  %56 = getelementptr inbounds nuw i8, ptr %0, i64 104
  %57 = load ptr, ptr %56, align 8, !tbaa !9
  %58 = getelementptr inbounds nuw i8, ptr %57, i64 16
  %59 = load ptr, ptr %58, align 8
  tail call void %59(ptr noundef nonnull align 8 dereferenceable(9) %56, i1 noundef zeroext true)
  ret void
}